; ModuleID = '9/1386.c'
source_filename = "9/1386.c"
target datalayout = "e-m:e-p270:32:32-p271:32:32-p272:64:64-i64:64-f80:128-n8:16:32:64-S128"
target triple = "x86_64-pc-linux-gnu"

%struct.bing = type { [10 x i8], i32 }

@.str = private unnamed_addr constant [3 x i8] c"%d\00", align 1
@.str.1 = private unnamed_addr constant [5 x i8] c"%s%d\00", align 1
@person = common dso_local global [100 x %struct.bing] zeroinitializer, align 16
@old = common dso_local global [100 x %struct.bing] zeroinitializer, align 16
@.str.2 = private unnamed_addr constant [4 x i8] c"%s\0A\00", align 1

; Function Attrs: noinline nounwind uwtable
define dso_local i32 @main() #0 {
  %1 = alloca i32, align 4
  %2 = alloca i32, align 4
  %3 = alloca i32, align 4
  %4 = alloca i32, align 4
  %5 = alloca i32, align 4
  %6 = alloca i32, align 4
  %7 = alloca [10 x i8], align 1
  store i32 0, i32* %1, align 4
  store i32 0, i32* %4, align 4
  %8 = call i32 (i8*, ...) @__isoc99_scanf(i8* getelementptr inbounds ([3 x i8], [3 x i8]* @.str, i64 0, i64 0), i32* %2)
  store i32 0, i32* %3, align 4
  br label %9

9:                                                ; preds = %54, %0
  %10 = load i32, i32* %3, align 4
  %11 = load i32, i32* %2, align 4
  %12 = icmp slt i32 %10, %11
  br i1 %12, label %13, label %57

13:                                               ; preds = %9
  %14 = load i32, i32* %3, align 4
  %15 = sext i32 %14 to i64
  %16 = getelementptr inbounds [100 x %struct.bing], [100 x %struct.bing]* @person, i64 0, i64 %15
  %17 = getelementptr inbounds %struct.bing, %struct.bing* %16, i32 0, i32 0
  %18 = getelementptr inbounds [10 x i8], [10 x i8]* %17, i64 0, i64 0
  %19 = load i32, i32* %3, align 4
  %20 = sext i32 %19 to i64
  %21 = getelementptr inbounds [100 x %struct.bing], [100 x %struct.bing]* @person, i64 0, i64 %20
  %22 = getelementptr inbounds %struct.bing, %struct.bing* %21, i32 0, i32 1
  %23 = call i32 (i8*, ...) @__isoc99_scanf(i8* getelementptr inbounds ([5 x i8], [5 x i8]* @.str.1, i64 0, i64 0), i8* %18, i32* %22)
  %24 = load i32, i32* %3, align 4
  %25 = sext i32 %24 to i64
  %26 = getelementptr inbounds [100 x %struct.bing], [100 x %struct.bing]* @person, i64 0, i64 %25
  %27 = getelementptr inbounds %struct.bing, %struct.bing* %26, i32 0, i32 1
  %28 = load i32, i32* %27, align 4
  %29 = icmp sge i32 %28, 60
  br i1 %29, label %30, label %53

30:                                               ; preds = %13
  %31 = load i32, i32* %4, align 4
  %32 = sext i32 %31 to i64
  %33 = getelementptr inbounds [100 x %struct.bing], [100 x %struct.bing]* @old, i64 0, i64 %32
  %34 = getelementptr inbounds %struct.bing, %struct.bing* %33, i32 0, i32 0
  %35 = getelementptr inbounds [10 x i8], [10 x i8]* %34, i64 0, i64 0
  %36 = load i32, i32* %3, align 4
  %37 = sext i32 %36 to i64
  %38 = getelementptr inbounds [100 x %struct.bing], [100 x %struct.bing]* @person, i64 0, i64 %37
  %39 = getelementptr inbounds %struct.bing, %struct.bing* %38, i32 0, i32 0
  %40 = getelementptr inbounds [10 x i8], [10 x i8]* %39, i64 0, i64 0
  %41 = call i8* @strcpy(i8* %35, i8* %40) #3
  %42 = load i32, i32* %3, align 4
  %43 = sext i32 %42 to i64
  %44 = getelementptr inbounds [100 x %struct.bing], [100 x %struct.bing]* @person, i64 0, i64 %43
  %45 = getelementptr inbounds %struct.bing, %struct.bing* %44, i32 0, i32 1
  %46 = load i32, i32* %45, align 4
  %47 = load i32, i32* %4, align 4
  %48 = sext i32 %47 to i64
  %49 = getelementptr inbounds [100 x %struct.bing], [100 x %struct.bing]* @old, i64 0, i64 %48
  %50 = getelementptr inbounds %struct.bing, %struct.bing* %49, i32 0, i32 1
  store i32 %46, i32* %50, align 4
  %51 = load i32, i32* %4, align 4
  %52 = add nsw i32 %51, 1
  store i32 %52, i32* %4, align 4
  br label %53

53:                                               ; preds = %30, %13
  br label %54

54:                                               ; preds = %53
  %55 = load i32, i32* %3, align 4
  %56 = add nsw i32 %55, 1
  store i32 %56, i32* %3, align 4
  br label %9

57:                                               ; preds = %9
  store i32 1, i32* %5, align 4
  br label %58

58:                                               ; preds = %136, %57
  %59 = load i32, i32* %5, align 4
  %60 = load i32, i32* %4, align 4
  %61 = icmp slt i32 %59, %60
  br i1 %61, label %62, label %139

62:                                               ; preds = %58
  store i32 0, i32* %3, align 4
  br label %63

63:                                               ; preds = %132, %62
  %64 = load i32, i32* %3, align 4
  %65 = load i32, i32* %4, align 4
  %66 = load i32, i32* %5, align 4
  %67 = sub nsw i32 %65, %66
  %68 = icmp slt i32 %64, %67
  br i1 %68, label %69, label %135

69:                                               ; preds = %63
  %70 = load i32, i32* %3, align 4
  %71 = sext i32 %70 to i64
  %72 = getelementptr inbounds [100 x %struct.bing], [100 x %struct.bing]* @old, i64 0, i64 %71
  %73 = getelementptr inbounds %struct.bing, %struct.bing* %72, i32 0, i32 1
  %74 = load i32, i32* %73, align 4
  %75 = load i32, i32* %3, align 4
  %76 = add nsw i32 %75, 1
  %77 = sext i32 %76 to i64
  %78 = getelementptr inbounds [100 x %struct.bing], [100 x %struct.bing]* @old, i64 0, i64 %77
  %79 = getelementptr inbounds %struct.bing, %struct.bing* %78, i32 0, i32 1
  %80 = load i32, i32* %79, align 4
  %81 = icmp slt i32 %74, %80
  br i1 %81, label %82, label %131

82:                                               ; preds = %69
  %83 = getelementptr inbounds [10 x i8], [10 x i8]* %7, i64 0, i64 0
  %84 = load i32, i32* %3, align 4
  %85 = sext i32 %84 to i64
  %86 = getelementptr inbounds [100 x %struct.bing], [100 x %struct.bing]* @old, i64 0, i64 %85
  %87 = getelementptr inbounds %struct.bing, %struct.bing* %86, i32 0, i32 0
  %88 = getelementptr inbounds [10 x i8], [10 x i8]* %87, i64 0, i64 0
  %89 = call i8* @strcpy(i8* %83, i8* %88) #3
  %90 = load i32, i32* %3, align 4
  %91 = sext i32 %90 to i64
  %92 = getelementptr inbounds [100 x %struct.bing], [100 x %struct.bing]* @old, i64 0, i64 %91
  %93 = getelementptr inbounds %struct.bing, %struct.bing* %92, i32 0, i32 0
  %94 = getelementptr inbounds [10 x i8], [10 x i8]* %93, i64 0, i64 0
  %95 = load i32, i32* %3, align 4
  %96 = add nsw i32 %95, 1
  %97 = sext i32 %96 to i64
  %98 = getelementptr inbounds [100 x %struct.bing], [100 x %struct.bing]* @old, i64 0, i64 %97
  %99 = getelementptr inbounds %struct.bing, %struct.bing* %98, i32 0, i32 0
  %100 = getelementptr inbounds [10 x i8], [10 x i8]* %99, i64 0, i64 0
  %101 = call i8* @strcpy(i8* %94, i8* %100) #3
  %102 = load i32, i32* %3, align 4
  %103 = add nsw i32 %102, 1
  %104 = sext i32 %103 to i64
  %105 = getelementptr inbounds [100 x %struct.bing], [100 x %struct.bing]* @old, i64 0, i64 %104
  %106 = getelementptr inbounds %struct.bing, %struct.bing* %105, i32 0, i32 0
  %107 = getelementptr inbounds [10 x i8], [10 x i8]* %106, i64 0, i64 0
  %108 = getelementptr inbounds [10 x i8], [10 x i8]* %7, i64 0, i64 0
  %109 = call i8* @strcpy(i8* %107, i8* %108) #3
  %110 = load i32, i32* %3, align 4
  %111 = sext i32 %110 to i64
  %112 = getelementptr inbounds [100 x %struct.bing], [100 x %struct.bing]* @old, i64 0, i64 %111
  %113 = getelementptr inbounds %struct.bing, %struct.bing* %112, i32 0, i32 1
  %114 = load i32, i32* %113, align 4
  store i32 %114, i32* %6, align 4
  %115 = load i32, i32* %3, align 4
  %116 = add nsw i32 %115, 1
  %117 = sext i32 %116 to i64
  %118 = getelementptr inbounds [100 x %struct.bing], [100 x %struct.bing]* @old, i64 0, i64 %117
  %119 = getelementptr inbounds %struct.bing, %struct.bing* %118, i32 0, i32 1
  %120 = load i32, i32* %119, align 4
  %121 = load i32, i32* %3, align 4
  %122 = sext i32 %121 to i64
  %123 = getelementptr inbounds [100 x %struct.bing], [100 x %struct.bing]* @old, i64 0, i64 %122
  %124 = getelementptr inbounds %struct.bing, %struct.bing* %123, i32 0, i32 1
  store i32 %120, i32* %124, align 4
  %125 = load i32, i32* %6, align 4
  %126 = load i32, i32* %3, align 4
  %127 = add nsw i32 %126, 1
  %128 = sext i32 %127 to i64
  %129 = getelementptr inbounds [100 x %struct.bing], [100 x %struct.bing]* @old, i64 0, i64 %128
  %130 = getelementptr inbounds %struct.bing, %struct.bing* %129, i32 0, i32 1
  store i32 %125, i32* %130, align 4
  br label %131

131:                                              ; preds = %82, %69
  br label %132

132:                                              ; preds = %131
  %133 = load i32, i32* %3, align 4
  %134 = add nsw i32 %133, 1
  store i32 %134, i32* %3, align 4
  br label %63

135:                                              ; preds = %63
  br label %136

136:                                              ; preds = %135
  %137 = load i32, i32* %5, align 4
  %138 = add nsw i32 %137, 1
  store i32 %138, i32* %5, align 4
  br label %58

139:                                              ; preds = %58
  store i32 0, i32* %3, align 4
  br label %140

140:                                              ; preds = %151, %139
  %141 = load i32, i32* %3, align 4
  %142 = load i32, i32* %4, align 4
  %143 = icmp slt i32 %141, %142
  br i1 %143, label %144, label %154

144:                                              ; preds = %140
  %145 = load i32, i32* %3, align 4
  %146 = sext i32 %145 to i64
  %147 = getelementptr inbounds [100 x %struct.bing], [100 x %struct.bing]* @old, i64 0, i64 %146
  %148 = getelementptr inbounds %struct.bing, %struct.bing* %147, i32 0, i32 0
  %149 = getelementptr inbounds [10 x i8], [10 x i8]* %148, i64 0, i64 0
  %150 = call i32 (i8*, ...) @printf(i8* getelementptr inbounds ([4 x i8], [4 x i8]* @.str.2, i64 0, i64 0), i8* %149)
  br label %151

151:                                              ; preds = %144
  %152 = load i32, i32* %3, align 4
  %153 = add nsw i32 %152, 1
  store i32 %153, i32* %3, align 4
  br label %140

154:                                              ; preds = %140
  store i32 0, i32* %3, align 4
  br label %155

155:                                              ; preds = %174, %154
  %156 = load i32, i32* %3, align 4
  %157 = load i32, i32* %2, align 4
  %158 = icmp slt i32 %156, %157
  br i1 %158, label %159, label %177

159:                                              ; preds = %155
  %160 = load i32, i32* %3, align 4
  %161 = sext i32 %160 to i64
  %162 = getelementptr inbounds [100 x %struct.bing], [100 x %struct.bing]* @person, i64 0, i64 %161
  %163 = getelementptr inbounds %struct.bing, %struct.bing* %162, i32 0, i32 1
  %164 = load i32, i32* %163, align 4
  %165 = icmp slt i32 %164, 60
  br i1 %165, label %166, label %173

166:                                              ; preds = %159
  %167 = load i32, i32* %3, align 4
  %168 = sext i32 %167 to i64
  %169 = getelementptr inbounds [100 x %struct.bing], [100 x %struct.bing]* @person, i64 0, i64 %168
  %170 = getelementptr inbounds %struct.bing, %struct.bing* %169, i32 0, i32 0
  %171 = getelementptr inbounds [10 x i8], [10 x i8]* %170, i64 0, i64 0
  %172 = call i32 (i8*, ...) @printf(i8* getelementptr inbounds ([4 x i8], [4 x i8]* @.str.2, i64 0, i64 0), i8* %171)
  br label %173

173:                                              ; preds = %166, %159
  br label %174

174:                                              ; preds = %173
  %175 = load i32, i32* %3, align 4
  %176 = add nsw i32 %175, 1
  store i32 %176, i32* %3, align 4
  br label %155

177:                                              ; preds = %155
  ret i32 0
}

declare dso_local i32 @__isoc99_scanf(i8*, ...) #1

; Function Attrs: nounwind
declare dso_local i8* @strcpy(i8*, i8*) #2

declare dso_local i32 @printf(i8*, ...) #1


!llvm.module.flags = !{!0}
!llvm.ident = !{!1}

!0 = !{i32 1, !"wchar_size", i32 4}
!1 = !{!"clang version 10.0.0-4ubuntu1 "}
